; Function Attrs: inlinehint mustprogress nounwind willreturn uwtable
define internal fastcc ptr @Cba_ObjNtk(ptr noundef captures(none) %0, i32 noundef %1) unnamed_addr #5 {
  %3 = getelementptr i8, ptr %0, i64 96
  %.val.i = load ptr, ptr %3, align 8, !tbaa !47
  %4 = sext i32 %1 to i64
  %5 = getelementptr inbounds i8, ptr %.val.i, i64 %4
  %6 = load i8, ptr %5, align 1, !tbaa !3
  %.not.i = icmp eq i8 %6, 3
  br i1 %.not.i, label %7, label %Cba_NtkNtk.exit

7:                                                ; preds = %2
  %8 = getelementptr i8, ptr %0, i64 188
  %.val5.i = load i32, ptr %8, align 4, !tbaa !28
  %9 = icmp slt i32 %.val5.i, 1
  br i1 %9, label %Cba_NtkNtk.exit, label %10

10:                                               ; preds = %7
  %11 = getelementptr inbounds nuw i8, ptr %0, i64 184
  %12 = add nsw i32 %1, 1
  %.not.i.not.i.i.i = icmp slt i32 %1, %.val5.i
  br i1 %.not.i.not.i.i.i, label %Cba_ObjNtkId.exit, label %13

13:                                               ; preds = %10
  %14 = load i32, ptr %11, align 8, !tbaa !26
  %15 = shl nsw i32 %14, 1
  %.not.i.i.i = icmp slt i32 %1, %15
  br i1 %.not.i.i.i, label %27, label %16

16:                                               ; preds = %13
  %17 = getelementptr inbounds nuw i8, ptr %0, i64 192
  %18 = load ptr, ptr %17, align 8, !tbaa !27
  %.not9.i.i.i.i.i = icmp eq ptr %18, null
  %19 = zext nneg i32 %12 to i64
  %20 = shl nuw nsw i64 %19, 2
  br i1 %.not9.i.i.i.i.i, label %23, label %21

21:                                               ; preds = %16
  %22 = tail call ptr @realloc(ptr noundef nonnull %18, i64 noundef %20) #22
  br label %25

23:                                               ; preds = %16
  %24 = tail call noalias ptr @malloc(i64 noundef %20) #20
  br label %25

25:                                               ; preds = %23, %21
  %26 = phi ptr [ %22, %21 ], [ %24, %23 ]
  store ptr %26, ptr %17, align 8, !tbaa !27
  br label %Vec_IntGrow.exit.sink.split.i.i.i.i

27:                                               ; preds = %13
  %.not.i.i.not.i.i.i = icmp sgt i32 %14, %1
  br i1 %.not.i.i.not.i.i.i, label %Vec_IntGrow.exit.i.i.i.i, label %28

28:                                               ; preds = %27
  %29 = getelementptr inbounds nuw i8, ptr %0, i64 192
  %30 = load ptr, ptr %29, align 8, !tbaa !27
  %.not9.i21.i.i.i.i = icmp eq ptr %30, null
  %31 = zext nneg i32 %15 to i64
  %32 = shl nuw nsw i64 %31, 2
  br i1 %.not9.i21.i.i.i.i, label %35, label %33

33:                                               ; preds = %28
  %34 = tail call ptr @realloc(ptr noundef nonnull %30, i64 noundef %32) #22
  br label %37

35:                                               ; preds = %28
  %36 = tail call noalias ptr @malloc(i64 noundef %32) #20
  br label %37

37:                                               ; preds = %35, %33
  %38 = phi ptr [ %34, %33 ], [ %36, %35 ]
  store ptr %38, ptr %29, align 8, !tbaa !27
  br label %Vec_IntGrow.exit.sink.split.i.i.i.i

Vec_IntGrow.exit.sink.split.i.i.i.i:              ; preds = %37, %25
  %.sink.i.i.i.i = phi i32 [ %15, %37 ], [ %12, %25 ]
  store i32 %.sink.i.i.i.i, ptr %11, align 8, !tbaa !26
  %.pre.i.i.i = load i32, ptr %8, align 4, !tbaa !28
  br label %Vec_IntGrow.exit.i.i.i.i

Vec_IntGrow.exit.i.i.i.i:                         ; preds = %Vec_IntGrow.exit.sink.split.i.i.i.i, %27
  %39 = phi i32 [ %.pre.i.i.i, %Vec_IntGrow.exit.sink.split.i.i.i.i ], [ %.val5.i, %27 ]
  %.not3.i.i.i = icmp sgt i32 %39, %1
  br i1 %.not3.i.i.i, label %._crit_edge.i.i.i.i, label %.lr.ph.i.i.i.i

.lr.ph.i.i.i.i:                                   ; preds = %Vec_IntGrow.exit.i.i.i.i
  %40 = getelementptr inbounds nuw i8, ptr %0, i64 192
  %41 = load ptr, ptr %40, align 8, !tbaa !27
  %42 = sext i32 %39 to i64
  %43 = shl nsw i64 %42, 2
  %scevgep.i.i.i.i = getelementptr i8, ptr %41, i64 %43
  %44 = sub i32 %1, %39
  %45 = zext i32 %44 to i64
  %46 = shl nuw nsw i64 %45, 2
  %47 = add nuw nsw i64 %46, 4
  tail call void @llvm.memset.p0.i64(ptr noundef nonnull align 4 dereferenceable(1) %scevgep.i.i.i.i, i8 0, i64 %47, i1 false), !tbaa !33
  br label %._crit_edge.i.i.i.i

._crit_edge.i.i.i.i:                              ; preds = %.lr.ph.i.i.i.i, %Vec_IntGrow.exit.i.i.i.i
  store i32 %12, ptr %8, align 4, !tbaa !28
  br label %Cba_ObjNtkId.exit

Cba_ObjNtkId.exit:                                ; preds = %10, %._crit_edge.i.i.i.i
  %48 = getelementptr i8, ptr %0, i64 192
  %.val.i.i.i = load ptr, ptr %48, align 8, !tbaa !27
  %49 = getelementptr inbounds i32, ptr %.val.i.i.i, i64 %4
  %50 = load i32, ptr %49, align 4, !tbaa !33
  %.val = load ptr, ptr %0, align 8, !tbaa !67
  %51 = icmp sgt i32 %50, 0
  br i1 %51, label %Cba_ManNtkIsOk.exit.i.i, label %Cba_NtkNtk.exit

Cba_ManNtkIsOk.exit.i.i:                          ; preds = %Cba_ObjNtkId.exit
  %52 = getelementptr i8, ptr %.val, i64 1564
  %.val.i.i.i2 = load i32, ptr %52, align 4, !tbaa !36
  %.not.i.i = icmp slt i32 %50, %.val.i.i.i2
  br i1 %.not.i.i, label %53, label %Cba_NtkNtk.exit

53:                                               ; preds = %Cba_ManNtkIsOk.exit.i.i
  %54 = getelementptr i8, ptr %.val, i64 1568
  %.val.i.i = load ptr, ptr %54, align 8, !tbaa !39
  %55 = zext nneg i32 %50 to i64
  %56 = getelementptr inbounds nuw ptr, ptr %.val.i.i, i64 %55
  %57 = load ptr, ptr %56, align 8, !tbaa !57
  br label %Cba_NtkNtk.exit

Cba_NtkNtk.exit:                                  ; preds = %2, %7, %Cba_ObjNtkId.exit, %Cba_ManNtkIsOk.exit.i.i, %53
  %58 = phi ptr [ %57, %53 ], [ null, %Cba_ManNtkIsOk.exit.i.i ], [ null, %Cba_ObjNtkId.exit ], [ null, %7 ], [ null, %2 ]
  ret ptr %58
}